target datalayout = "e-m:e-p270:32:32-p271:32:32-p272:64:64-i64:64-i128:128-f80:128-n8:16:32:64-S128"
target triple = "x86_64-pc-linux-gnu"

@proto_register_adb.ett = internal global [5 x ptr] [ptr @ett_adb, ptr @ett_adb_arg0, ptr @ett_adb_arg1, ptr @ett_adb_crc, ptr @ett_adb_magic], align 16
@command_info = internal global ptr null, align 8
@service_info = internal global ptr null, align 8
@.str.52 = private unnamed_addr constant [21 x i8] c"Android Debug Bridge\00", align 1
@.str.53 = private unnamed_addr constant [4 x i8] c"ADB\00", align 1
@.str.54 = private unnamed_addr constant [4 x i8] c"adb\00", align 1
@proto_adb = internal global i32 0, align 4
@adb_handle = internal global ptr null, align 8
@.str.55 = private unnamed_addr constant [8 x i8] c"version\00", align 1
@.str.56 = private unnamed_addr constant [56 x i8] c"ADB protocol version is compatible prior to: adb 1.0.31\00", align 1
@.str.57 = private unnamed_addr constant [49 x i8] c"Version of protocol supported by this dissector.\00", align 1

; Function Attrs: nounwind uwtable
define hidden void @proto_register_adb() #0 {
  %1 = alloca ptr, align 8
  %2 = alloca ptr, align 8
  %3 = call ptr @wmem_epan_scope()
  %4 = call ptr @wmem_file_scope()
  %5 = call noalias ptr @wmem_tree_new_autoreset(ptr noundef %3, ptr noundef %4)
  store ptr %5, ptr @command_info, align 8
  %6 = call ptr @wmem_epan_scope()
  %7 = call ptr @wmem_file_scope()
  %8 = call noalias ptr @wmem_tree_new_autoreset(ptr noundef %6, ptr noundef %7)
  store ptr %8, ptr @service_info, align 8
  %9 = call i32 @proto_register_protocol(ptr noundef @.str.52, ptr noundef @.str.53, ptr noundef @.str.54)
  store i32 %9, ptr @proto_adb, align 4
  %10 = load i32, ptr @proto_adb, align 4
  %11 = call ptr @register_dissector(ptr noundef @.str.54, ptr noundef @dissect_adb, i32 noundef %10)
  store ptr %11, ptr @adb_handle, align 8
  %12 = load i32, ptr @proto_adb, align 4
  call void @proto_register_field_array(i32 noundef %12, ptr noundef @proto_register_adb.hf, i32 noundef 23)
  call void @proto_register_subtree_array(ptr noundef @proto_register_adb.ett, i32 noundef 5)
  %13 = load i32, ptr @proto_adb, align 4
  %14 = call ptr @expert_register_protocol(i32 noundef %13)
  store ptr %14, ptr %2, align 8
  %15 = load ptr, ptr %2, align 8
  call void @expert_register_field_array(ptr noundef %15, ptr noundef @proto_register_adb.ei, i32 noundef 3)
  %16 = load i32, ptr @proto_adb, align 4
  %17 = call ptr @prefs_register_protocol(i32 noundef %16, ptr noundef null)
  store ptr %17, ptr %1, align 8
  %18 = load ptr, ptr %1, align 8
  call void @prefs_register_static_text_preference(ptr noundef %18, ptr noundef @.str.55, ptr noundef @.str.56, ptr noundef @.str.57)
  ret void
}