; Function Attrs: nounwind uwtable
define hidden void @proto_register_adb() local_unnamed_addr #0 {
  %1 = tail call ptr @wmem_epan_scope() #4
  %2 = tail call ptr @wmem_file_scope() #4
  %3 = tail call noalias ptr @wmem_tree_new_autoreset(ptr noundef %1, ptr noundef %2) #4
  store ptr %3, ptr @command_info, align 8
  %4 = tail call ptr @wmem_epan_scope() #4
  %5 = tail call ptr @wmem_file_scope() #4
  %6 = tail call noalias ptr @wmem_tree_new_autoreset(ptr noundef %4, ptr noundef %5) #4
  store ptr %6, ptr @service_info, align 8
  %7 = tail call i32 @proto_register_protocol(ptr noundef nonnull @.str.52, ptr noundef nonnull @.str.53, ptr noundef nonnull @.str.54) #4
  store i32 %7, ptr @proto_adb, align 4
  %8 = tail call ptr @register_dissector(ptr noundef nonnull @.str.54, ptr noundef nonnull @dissect_adb, i32 noundef %7) #4
  store ptr %8, ptr @adb_handle, align 8
  %9 = load i32, ptr @proto_adb, align 4
  tail call void @proto_register_field_array(i32 noundef %9, ptr noundef nonnull @proto_register_adb.hf, i32 noundef 23) #4
  tail call void @proto_register_subtree_array(ptr noundef nonnull @proto_register_adb.ett, i32 noundef 5) #4
  %10 = load i32, ptr @proto_adb, align 4
  %11 = tail call ptr @expert_register_protocol(i32 noundef %10) #4
  tail call void @expert_register_field_array(ptr noundef %11, ptr noundef nonnull @proto_register_adb.ei, i32 noundef 3) #4
  %12 = load i32, ptr @proto_adb, align 4
  %13 = tail call ptr @prefs_register_protocol(i32 noundef %12, ptr noundef null) #4
  tail call void @prefs_register_static_text_preference(ptr noundef %13, ptr noundef nonnull @.str.55, ptr noundef nonnull @.str.56, ptr noundef nonnull @.str.57) #4
  ret void
}